; ModuleID = '49/620.cpp'
source_filename = "49/620.cpp"
target datalayout = "e-m:e-p270:32:32-p271:32:32-p272:64:64-i64:64-f80:128-n8:16:32:64-S128"
target triple = "x86_64-pc-linux-gnu"

%"class.std::ios_base::Init" = type { i8 }
%"class.std::basic_ostream" = type { i32 (...)**, %"class.std::basic_ios" }
%"class.std::basic_ios" = type { %"class.std::ios_base", %"class.std::basic_ostream"*, i8, i8, %"class.std::basic_streambuf"*, %"class.std::ctype"*, %"class.std::num_put"*, %"class.std::num_get"* }
%"class.std::ios_base" = type { i32 (...)**, i64, i64, i32, i32, i32, %"struct.std::ios_base::_Callback_list"*, %"struct.std::ios_base::_Words", [8 x %"struct.std::ios_base::_Words"], i32, %"struct.std::ios_base::_Words"*, %"class.std::locale" }
%"struct.std::ios_base::_Callback_list" = type { %"struct.std::ios_base::_Callback_list"*, void (i32, %"class.std::ios_base"*, i32)*, i32, i32 }
%"struct.std::ios_base::_Words" = type { i8*, i64 }
%"class.std::locale" = type { %"class.std::locale::_Impl"* }
%"class.std::locale::_Impl" = type { i32, %"class.std::locale::facet"**, i64, %"class.std::locale::facet"**, i8** }
%"class.std::locale::facet" = type <{ i32 (...)**, i32, [4 x i8] }>
%"class.std::basic_streambuf" = type { i32 (...)**, i8*, i8*, i8*, i8*, i8*, i8*, %"class.std::locale" }
%"class.std::ctype" = type <{ %"class.std::locale::facet.base", [4 x i8], %struct.__locale_struct*, i8, [7 x i8], i32*, i32*, i16*, i8, [256 x i8], [256 x i8], i8, [6 x i8] }>
%"class.std::locale::facet.base" = type <{ i32 (...)**, i32 }>
%struct.__locale_struct = type { [13 x %struct.__locale_data*], i16*, i32*, i32*, [13 x i8*] }
%struct.__locale_data = type opaque
%"class.std::num_put" = type { %"class.std::locale::facet.base", [4 x i8] }
%"class.std::num_get" = type { %"class.std::locale::facet.base", [4 x i8] }

@_ZStL8__ioinit = internal global %"class.std::ios_base::Init" zeroinitializer, align 1
@__dso_handle = external hidden global i8
@_ZSt4cout = external dso_local global %"class.std::basic_ostream", align 8
@llvm.global_ctors = appending global [1 x { i32, void ()*, i8* }] [{ i32, void ()*, i8* } { i32 65535, void ()* @_GLOBAL__sub_I_620.cpp, i8* null }]

; Function Attrs: noinline uwtable
define internal void @__cxx_global_var_init() #0 section ".text.startup" {
  call void @_ZNSt8ios_base4InitC1Ev(%"class.std::ios_base::Init"* @_ZStL8__ioinit)
  %1 = call i32 @__cxa_atexit(void (i8*)* bitcast (void (%"class.std::ios_base::Init"*)* @_ZNSt8ios_base4InitD1Ev to void (i8*)*), i8* getelementptr inbounds (%"class.std::ios_base::Init", %"class.std::ios_base::Init"* @_ZStL8__ioinit, i32 0, i32 0), i8* @__dso_handle) #3
  ret void
}

declare dso_local void @_ZNSt8ios_base4InitC1Ev(%"class.std::ios_base::Init"*) unnamed_addr #1

; Function Attrs: nounwind
declare dso_local void @_ZNSt8ios_base4InitD1Ev(%"class.std::ios_base::Init"*) unnamed_addr #2

; Function Attrs: nounwind
declare dso_local i32 @__cxa_atexit(void (i8*)*, i8*, i8*) #3

; Function Attrs: noinline norecurse uwtable
define dso_local i32 @main() #4 {
  %1 = alloca i32, align 4
  %2 = alloca i32, align 4
  %3 = alloca [1000 x i32], align 16
  %4 = alloca i32, align 4
  %5 = alloca i32, align 4
  %6 = alloca i32, align 4
  %7 = alloca i32, align 4
  %8 = alloca i32, align 4
  %9 = alloca i32, align 4
  store i32 0, i32* %1, align 4
  store i32 1, i32* %5, align 4
  br label %10

10:                                               ; preds = %27, %0
  %11 = load i32, i32* %5, align 4
  %12 = icmp sle i32 %11, 999
  br i1 %12, label %13, label %30

13:                                               ; preds = %10
  %14 = call i32 @getchar()
  %15 = load i32, i32* %5, align 4
  %16 = sext i32 %15 to i64
  %17 = getelementptr inbounds [1000 x i32], [1000 x i32]* %3, i64 0, i64 %16
  store i32 %14, i32* %17, align 4
  %18 = load i32, i32* %5, align 4
  %19 = sext i32 %18 to i64
  %20 = getelementptr inbounds [1000 x i32], [1000 x i32]* %3, i64 0, i64 %19
  %21 = load i32, i32* %20, align 4
  %22 = icmp eq i32 %21, 10
  br i1 %22, label %23, label %26

23:                                               ; preds = %13
  %24 = load i32, i32* %5, align 4
  %25 = sub nsw i32 %24, 1
  store i32 %25, i32* %2, align 4
  br label %30

26:                                               ; preds = %13
  br label %27

27:                                               ; preds = %26
  %28 = load i32, i32* %5, align 4
  %29 = add nsw i32 %28, 1
  store i32 %29, i32* %5, align 4
  br label %10

30:                                               ; preds = %23, %10
  store i32 2, i32* %6, align 4
  br label %31

31:                                               ; preds = %101, %30
  %32 = load i32, i32* %6, align 4
  %33 = load i32, i32* %2, align 4
  %34 = icmp sle i32 %32, %33
  br i1 %34, label %35, label %104

35:                                               ; preds = %31
  store i32 1, i32* %7, align 4
  br label %36

36:                                               ; preds = %97, %35
  %37 = load i32, i32* %7, align 4
  %38 = load i32, i32* %2, align 4
  %39 = load i32, i32* %6, align 4
  %40 = sub nsw i32 %38, %39
  %41 = add nsw i32 %40, 1
  %42 = icmp sle i32 %37, %41
  br i1 %42, label %43, label %100

43:                                               ; preds = %36
  store i32 0, i32* %4, align 4
  store i32 1, i32* %8, align 4
  br label %44

44:                                               ; preds = %69, %43
  %45 = load i32, i32* %8, align 4
  %46 = load i32, i32* %6, align 4
  %47 = sdiv i32 %46, 2
  %48 = icmp sle i32 %45, %47
  br i1 %48, label %49, label %72

49:                                               ; preds = %44
  %50 = load i32, i32* %4, align 4
  %51 = load i32, i32* %7, align 4
  %52 = sub nsw i32 %51, 1
  %53 = load i32, i32* %8, align 4
  %54 = add nsw i32 %52, %53
  %55 = sext i32 %54 to i64
  %56 = getelementptr inbounds [1000 x i32], [1000 x i32]* %3, i64 0, i64 %55
  %57 = load i32, i32* %56, align 4
  %58 = load i32, i32* %7, align 4
  %59 = load i32, i32* %6, align 4
  %60 = add nsw i32 %58, %59
  %61 = load i32, i32* %8, align 4
  %62 = sub nsw i32 %60, %61
  %63 = sext i32 %62 to i64
  %64 = getelementptr inbounds [1000 x i32], [1000 x i32]* %3, i64 0, i64 %63
  %65 = load i32, i32* %64, align 4
  %66 = icmp eq i32 %57, %65
  %67 = zext i1 %66 to i32
  %68 = add nsw i32 %50, %67
  store i32 %68, i32* %4, align 4
  br label %69

69:                                               ; preds = %49
  %70 = load i32, i32* %8, align 4
  %71 = add nsw i32 %70, 1
  store i32 %71, i32* %8, align 4
  br label %44

72:                                               ; preds = %44
  %73 = load i32, i32* %4, align 4
  %74 = load i32, i32* %6, align 4
  %75 = sdiv i32 %74, 2
  %76 = icmp eq i32 %73, %75
  br i1 %76, label %77, label %96

77:                                               ; preds = %72
  store i32 1, i32* %9, align 4
  br label %78

78:                                               ; preds = %91, %77
  %79 = load i32, i32* %9, align 4
  %80 = load i32, i32* %6, align 4
  %81 = icmp sle i32 %79, %80
  br i1 %81, label %82, label %94

82:                                               ; preds = %78
  %83 = load i32, i32* %7, align 4
  %84 = sub nsw i32 %83, 1
  %85 = load i32, i32* %9, align 4
  %86 = add nsw i32 %84, %85
  %87 = sext i32 %86 to i64
  %88 = getelementptr inbounds [1000 x i32], [1000 x i32]* %3, i64 0, i64 %87
  %89 = load i32, i32* %88, align 4
  %90 = call i32 @putchar(i32 %89)
  br label %91

91:                                               ; preds = %82
  %92 = load i32, i32* %9, align 4
  %93 = add nsw i32 %92, 1
  store i32 %93, i32* %9, align 4
  br label %78

94:                                               ; preds = %78
  %95 = call dereferenceable(272) %"class.std::basic_ostream"* @_ZNSolsEPFRSoS_E(%"class.std::basic_ostream"* @_ZSt4cout, %"class.std::basic_ostream"* (%"class.std::basic_ostream"*)* @_ZSt4endlIcSt11char_traitsIcEERSt13basic_ostreamIT_T0_ES6_)
  br label %96

96:                                               ; preds = %94, %72
  br label %97

97:                                               ; preds = %96
  %98 = load i32, i32* %7, align 4
  %99 = add nsw i32 %98, 1
  store i32 %99, i32* %7, align 4
  br label %36

100:                                              ; preds = %36
  br label %101

101:                                              ; preds = %100
  %102 = load i32, i32* %6, align 4
  %103 = add nsw i32 %102, 2
  store i32 %103, i32* %6, align 4
  br label %31

104:                                              ; preds = %31
  ret i32 0
}

declare dso_local i32 @getchar() #1

declare dso_local i32 @putchar(i32) #1

declare dso_local dereferenceable(272) %"class.std::basic_ostream"* @_ZNSolsEPFRSoS_E(%"class.std::basic_ostream"*, %"class.std::basic_ostream"* (%"class.std::basic_ostream"*)*) #1

declare dso_local dereferenceable(272) %"class.std::basic_ostream"* @_ZSt4endlIcSt11char_traitsIcEERSt13basic_ostreamIT_T0_ES6_(%"class.std::basic_ostream"* dereferenceable(272)) #1

; Function Attrs: noinline uwtable
define internal void @_GLOBAL__sub_I_620.cpp() #0 section ".text.startup" {
  call void @__cxx_global_var_init()
  ret void
}


!llvm.module.flags = !{!0}
!llvm.ident = !{!1}

!0 = !{i32 1, !"wchar_size", i32 4}
!1 = !{!"clang version 10.0.0-4ubuntu1 "}
